target datalayout = "e-m:e-p270:32:32-p271:32:32-p272:64:64-i64:64-i128:128-f80:128-n8:16:32:64-S128"
target triple = "x86_64-pc-linux-gnu"

%struct.ewah_bitmap = type { ptr, i64, i64, i64, ptr }

; Function Attrs: nounwind uwtable
define dso_local i64 @ewah_add_empty_words(ptr noundef %0, i32 noundef %1, i64 noundef %2) #0 {
  %4 = alloca i64, align 8
  %5 = alloca ptr, align 8
  %6 = alloca i32, align 4
  %7 = alloca i64, align 8
  store ptr %0, ptr %5, align 8, !tbaa !4
  store i32 %1, ptr %6, align 4, !tbaa !9
  store i64 %2, ptr %7, align 8, !tbaa !11
  %8 = load i64, ptr %7, align 8, !tbaa !11
  %9 = icmp eq i64 %8, 0
  br i1 %9, label %10, label %11

10:                                               ; preds = %3
  store i64 0, ptr %4, align 8
  br label %22

11:                                               ; preds = %3
  %12 = load i64, ptr %7, align 8, !tbaa !11
  %13 = mul i64 %12, 64
  %14 = load ptr, ptr %5, align 8, !tbaa !4
  %15 = getelementptr inbounds nuw %struct.ewah_bitmap, ptr %14, i32 0, i32 3
  %16 = load i64, ptr %15, align 8, !tbaa !13
  %17 = add i64 %16, %13
  store i64 %17, ptr %15, align 8, !tbaa !13
  %18 = load ptr, ptr %5, align 8, !tbaa !4
  %19 = load i32, ptr %6, align 4, !tbaa !9
  %20 = load i64, ptr %7, align 8, !tbaa !11
  %21 = call i64 @add_empty_words(ptr noundef %18, i32 noundef %19, i64 noundef %20)
  store i64 %21, ptr %4, align 8
  br label %22

22:                                               ; preds = %11, %10
  %23 = load i64, ptr %4, align 8
  ret i64 %23
}