; Function Attrs: nounwind uwtable
define dso_local i64 @ewah_add_empty_words(ptr noundef captures(none) %0, i32 noundef %1, i64 noundef %2) local_unnamed_addr #0 {
  %4 = icmp eq i64 %2, 0
  br i1 %4, label %11, label %5

5:                                                ; preds = %3
  %6 = shl i64 %2, 6
  %7 = getelementptr inbounds nuw i8, ptr %0, i64 24
  %8 = load i64, ptr %7, align 8, !tbaa !4
  %9 = add i64 %8, %6
  store i64 %9, ptr %7, align 8, !tbaa !4
  %10 = tail call fastcc i64 @add_empty_words(ptr noundef %0, i32 noundef %1, i64 noundef %2)
  br label %11

11:                                               ; preds = %3, %5
  %.0 = phi i64 [ %10, %5 ], [ 0, %3 ]
  ret i64 %.0
}